target datalayout = "e-m:e-p270:32:32-p271:32:32-p272:64:64-i64:64-i128:128-f80:128-n8:16:32:64-S128"
target triple = "x86_64-pc-linux-gnu"

%struct.H5SM_read_udata_t = type { ptr, i32, i64, ptr }

@H5SM_init_g = global i8 0, align 1
@H5_libterm_g = external global i8, align 1
@.str.4 = private unnamed_addr constant [98 x i8] c"generated/home/dtcxzyw/WorkSpace/Projects/compilers/llvm-opt-benchmark/bench/hdf5/hdf5/src/H5SM.c\00", align 1
@H5E_SOHM_g = external global i64, align 8
@H5E_CANTALLOC_g = external global i64, align 8
@.str.134 = private unnamed_addr constant [25 x i8] c"memory allocation failed\00", align 1
@__func__.H5SM__read_mesg_fh_cb = private unnamed_addr constant [22 x i8] c"H5SM__read_mesg_fh_cb\00", align 1

; Function Attrs: nounwind uwtable
define internal i32 @H5SM__read_mesg_fh_cb(ptr noundef %0, i64 noundef %1, ptr noundef %2) #0 {
  %4 = alloca ptr, align 8
  %5 = alloca i64, align 8
  %6 = alloca ptr, align 8
  %7 = alloca ptr, align 8
  %8 = alloca i32, align 4
  %9 = alloca i8, align 1
  store ptr %0, ptr %4, align 8, !tbaa !57
  store i64 %1, ptr %5, align 8, !tbaa !16
  store ptr %2, ptr %6, align 8, !tbaa !57
  call void @llvm.lifetime.start.p0(i64 8, ptr %7) #8
  %10 = load ptr, ptr %6, align 8, !tbaa !57
  store ptr %10, ptr %7, align 8, !tbaa !145
  call void @llvm.lifetime.start.p0(i64 4, ptr %8) #8
  store i32 0, ptr %8, align 4, !tbaa !14
  call void @llvm.lifetime.start.p0(i64 1, ptr %9) #8
  store i8 0, ptr %9, align 1, !tbaa !18
  %11 = load i8, ptr @H5SM_init_g, align 1, !tbaa !18, !range !20, !noundef !21
  %12 = trunc i8 %11 to i1
  br i1 %12, label %17, label %13

13:                                               ; preds = %3
  %14 = load i8, ptr @H5_libterm_g, align 1, !tbaa !18, !range !20, !noundef !21
  %15 = trunc i8 %14 to i1
  %16 = xor i1 %15, true
  br label %17

17:                                               ; preds = %13, %3
  %18 = phi i1 [ true, %3 ], [ %16, %13 ]
  %19 = xor i1 %18, true
  %20 = xor i1 %19, true
  %21 = zext i1 %20 to i32
  %22 = sext i32 %21 to i64
  %23 = call i64 @llvm.expect.i64(i64 %22, i64 1)
  %24 = icmp ne i64 %23, 0
  br i1 %24, label %25, label %60

25:                                               ; preds = %17
  %26 = load i64, ptr %5, align 8, !tbaa !16
  %27 = call noalias ptr @malloc(i64 noundef %26) #9
  %28 = load ptr, ptr %7, align 8, !tbaa !145
  %29 = getelementptr inbounds nuw %struct.H5SM_read_udata_t, ptr %28, i32 0, i32 3
  store ptr %27, ptr %29, align 8, !tbaa !118
  %30 = icmp eq ptr null, %27
  br i1 %30, label %31, label %50

31:                                               ; preds = %25
  br label %32

32:                                               ; preds = %31
  br label %33

33:                                               ; preds = %32
  br label %34

34:                                               ; preds = %33
  %35 = load i64, ptr @H5E_SOHM_g, align 8, !tbaa !16
  %36 = load i64, ptr @H5E_CANTALLOC_g, align 8, !tbaa !16
  %37 = call i32 (ptr, ptr, i32, i64, i64, ptr, ...) @H5E_printf_stack(ptr noundef @.str.4, ptr noundef @__func__.H5SM__read_mesg_fh_cb, i32 noundef 2296, i64 noundef %35, i64 noundef %36, ptr noundef @.str.134)
  br label %38

38:                                               ; preds = %34
  br label %39

39:                                               ; preds = %38
  store i8 1, ptr %9, align 1, !tbaa !18
  %40 = load i8, ptr %9, align 1, !tbaa !18, !range !20, !noundef !21
  %41 = trunc i8 %40 to i1
  %42 = zext i1 %41 to i8
  store i8 %42, ptr %9, align 1, !tbaa !18
  br label %43

43:                                               ; preds = %39
  br label %44

44:                                               ; preds = %43
  br label %45

45:                                               ; preds = %44
  store i32 -1, ptr %8, align 4, !tbaa !14
  br label %59

46:                                               ; No predecessors!
  br label %47

47:                                               ; preds = %46
  br label %48

48:                                               ; preds = %47
  br label %49

49:                                               ; preds = %48
  br label %50

50:                                               ; preds = %49, %25
  %51 = load ptr, ptr %7, align 8, !tbaa !145
  %52 = getelementptr inbounds nuw %struct.H5SM_read_udata_t, ptr %51, i32 0, i32 3
  %53 = load ptr, ptr %52, align 8, !tbaa !118
  %54 = load ptr, ptr %4, align 8, !tbaa !57
  %55 = load i64, ptr %5, align 8, !tbaa !16
  call void @llvm.memcpy.p0.p0.i64(ptr align 1 %53, ptr align 1 %54, i64 %55, i1 false)
  %56 = load i64, ptr %5, align 8, !tbaa !16
  %57 = load ptr, ptr %7, align 8, !tbaa !145
  %58 = getelementptr inbounds nuw %struct.H5SM_read_udata_t, ptr %57, i32 0, i32 2
  store i64 %56, ptr %58, align 8, !tbaa !125
  br label %59

59:                                               ; preds = %50, %45
  br label %60

60:                                               ; preds = %59, %17
  %61 = load i32, ptr %8, align 4, !tbaa !14
  call void @llvm.lifetime.end.p0(i64 1, ptr %9) #8
  call void @llvm.lifetime.end.p0(i64 4, ptr %8) #8
  call void @llvm.lifetime.end.p0(i64 8, ptr %7) #8
  ret i32 %61
}