; Function Attrs: nounwind uwtable
define internal range(i32 -1, 1) i32 @H5SM__read_mesg_fh_cb(ptr noundef readonly captures(none) %0, i64 noundef %1, ptr noundef writeonly captures(none) %2) #0 {
  %4 = load i8, ptr @H5SM_init_g, align 1, !tbaa !9, !range !11, !noundef !12
  %5 = trunc nuw i8 %4 to i1
  %6 = load i8, ptr @H5_libterm_g, align 1, !range !11
  %7 = trunc nuw i8 %6 to i1
  %8 = xor i1 %7, true
  %9 = select i1 %5, i1 true, i1 %8
  br i1 %9, label %10, label %20, !prof !13

10:                                               ; preds = %3
  %11 = tail call noalias ptr @malloc(i64 noundef %1) #12
  %12 = getelementptr inbounds nuw i8, ptr %2, i64 24
  store ptr %11, ptr %12, align 8, !tbaa !103
  %13 = icmp eq ptr %11, null
  br i1 %13, label %14, label %18

14:                                               ; preds = %10
  %15 = load i64, ptr @H5E_SOHM_g, align 8, !tbaa !7
  %16 = load i64, ptr @H5E_CANTALLOC_g, align 8, !tbaa !7
  %17 = tail call i32 (ptr, ptr, i32, i64, i64, ptr, ...) @H5E_printf_stack(ptr noundef nonnull @.str.4, ptr noundef nonnull @__func__.H5SM__read_mesg_fh_cb, i32 noundef 2296, i64 noundef %15, i64 noundef %16, ptr noundef nonnull @.str.134) #11
  br label %20

18:                                               ; preds = %10
  tail call void @llvm.memcpy.p0.p0.i64(ptr nonnull align 1 %11, ptr align 1 %0, i64 %1, i1 false)
  %19 = getelementptr inbounds nuw i8, ptr %2, i64 16
  store i64 %1, ptr %19, align 8, !tbaa !111
  br label %20

20:                                               ; preds = %14, %18, %3
  %.0 = phi i32 [ -1, %14 ], [ 0, %18 ], [ 0, %3 ]
  ret i32 %.0
}